target datalayout = "e-m:e-p270:32:32-p271:32:32-p272:64:64-i64:64-f80:128-n8:16:32:64-S128"
target triple = "x86_64-pc-linux-gnu"

@.str = private unnamed_addr constant [3 x i8] c"%d\00", align 1
@.str.1 = private unnamed_addr constant [3 x i8] c"%s\00", align 1
@.str.2 = private unnamed_addr constant [3 x i8] c"NO\00", align 1
@.str.3 = private unnamed_addr constant [4 x i8] c"%d\0A\00", align 1
@.str.4 = private unnamed_addr constant [4 x i8] c"%s\0A\00", align 1

; Function Attrs: noinline nounwind uwtable
define dso_local void @main() #0 {
  %1 = alloca i32, align 4
  %2 = alloca [600 x i32], align 16
  %3 = alloca i32, align 4
  %4 = alloca i32, align 4
  %5 = alloca i32, align 4
  %6 = alloca i32, align 4
  %7 = alloca [600 x i32], align 16
  %8 = alloca i32, align 4
  %9 = alloca [600 x [7 x i8]], align 16
  %10 = alloca [600 x i8], align 16
  %11 = bitcast [600 x i32]* %2 to i8*
  call void @llvm.memset.p0i8.i64(i8* align 16 %11, i8 0, i64 2400, i1 false)
  %12 = bitcast [600 x i32]* %7 to i8*
  call void @llvm.memset.p0i8.i64(i8* align 16 %12, i8 0, i64 2400, i1 false)
  store i32 0, i32* %8, align 4
  %13 = call i32 (i8*, ...) @__isoc99_scanf(i8* getelementptr inbounds ([3 x i8], [3 x i8]* @.str, i64 0, i64 0), i32* %5)
  %14 = getelementptr inbounds [600 x i8], [600 x i8]* %10, i64 0, i64 0
  %15 = call i32 (i8*, ...) @__isoc99_scanf(i8* getelementptr inbounds ([3 x i8], [3 x i8]* @.str.1, i64 0, i64 0), i8* %14)
  %16 = getelementptr inbounds [600 x i8], [600 x i8]* %10, i64 0, i64 0
  %17 = call i64 @strlen(i8* %16) #4
  %18 = trunc i64 %17 to i32
  store i32 %18, i32* %6, align 4
  store i32 0, i32* %1, align 4
  br label %19

19:                                               ; preds = %53, %0
  %20 = load i32, i32* %1, align 4
  %21 = load i32, i32* %6, align 4
  %22 = load i32, i32* %5, align 4
  %23 = sub nsw i32 %21, %22
  %24 = icmp sle i32 %20, %23
  br i1 %24, label %25, label %56

25:                                               ; preds = %19
  store i32 0, i32* %3, align 4
  br label %26

26:                                               ; preds = %43, %25
  %27 = load i32, i32* %3, align 4
  %28 = load i32, i32* %5, align 4
  %29 = icmp slt i32 %27, %28
  br i1 %29, label %30, label %46

30:                                               ; preds = %26
  %31 = load i32, i32* %1, align 4
  %32 = load i32, i32* %3, align 4
  %33 = add nsw i32 %31, %32
  %34 = sext i32 %33 to i64
  %35 = getelementptr inbounds [600 x i8], [600 x i8]* %10, i64 0, i64 %34
  %36 = load i8, i8* %35, align 1
  %37 = load i32, i32* %1, align 4
  %38 = sext i32 %37 to i64
  %39 = getelementptr inbounds [600 x [7 x i8]], [600 x [7 x i8]]* %9, i64 0, i64 %38
  %40 = load i32, i32* %3, align 4
  %41 = sext i32 %40 to i64
  %42 = getelementptr inbounds [7 x i8], [7 x i8]* %39, i64 0, i64 %41
  store i8 %36, i8* %42, align 1
  br label %43

43:                                               ; preds = %30
  %44 = load i32, i32* %3, align 4
  %45 = add nsw i32 %44, 1
  store i32 %45, i32* %3, align 4
  br label %26

46:                                               ; preds = %26
  %47 = load i32, i32* %1, align 4
  %48 = sext i32 %47 to i64
  %49 = getelementptr inbounds [600 x [7 x i8]], [600 x [7 x i8]]* %9, i64 0, i64 %48
  %50 = load i32, i32* %5, align 4
  %51 = sext i32 %50 to i64
  %52 = getelementptr inbounds [7 x i8], [7 x i8]* %49, i64 0, i64 %51
  store i8 0, i8* %52, align 1
  br label %53

53:                                               ; preds = %46
  %54 = load i32, i32* %1, align 4
  %55 = add nsw i32 %54, 1
  store i32 %55, i32* %1, align 4
  br label %19

56:                                               ; preds = %19
  store i32 0, i32* %1, align 4
  br label %57

57:                                               ; preds = %94, %56
  %58 = load i32, i32* %1, align 4
  %59 = load i32, i32* %6, align 4
  %60 = load i32, i32* %5, align 4
  %61 = sub nsw i32 %59, %60
  %62 = icmp slt i32 %58, %61
  br i1 %62, label %63, label %97

63:                                               ; preds = %57
  %64 = load i32, i32* %1, align 4
  %65 = add nsw i32 %64, 1
  store i32 %65, i32* %3, align 4
  br label %66

66:                                               ; preds = %90, %63
  %67 = load i32, i32* %3, align 4
  %68 = load i32, i32* %6, align 4
  %69 = load i32, i32* %5, align 4
  %70 = sub nsw i32 %68, %69
  %71 = icmp sle i32 %67, %70
  br i1 %71, label %72, label %93

72:                                               ; preds = %66
  %73 = load i32, i32* %1, align 4
  %74 = sext i32 %73 to i64
  %75 = getelementptr inbounds [600 x [7 x i8]], [600 x [7 x i8]]* %9, i64 0, i64 %74
  %76 = getelementptr inbounds [7 x i8], [7 x i8]* %75, i64 0, i64 0
  %77 = load i32, i32* %3, align 4
  %78 = sext i32 %77 to i64
  %79 = getelementptr inbounds [600 x [7 x i8]], [600 x [7 x i8]]* %9, i64 0, i64 %78
  %80 = getelementptr inbounds [7 x i8], [7 x i8]* %79, i64 0, i64 0
  %81 = call i32 @strcmp(i8* %76, i8* %80) #4
  %82 = icmp eq i32 %81, 0
  br i1 %82, label %83, label %89

83:                                               ; preds = %72
  %84 = load i32, i32* %1, align 4
  %85 = sext i32 %84 to i64
  %86 = getelementptr inbounds [600 x i32], [600 x i32]* %7, i64 0, i64 %85
  %87 = load i32, i32* %86, align 4
  %88 = add nsw i32 %87, 1
  store i32 %88, i32* %86, align 4
  br label %89

89:                                               ; preds = %83, %72
  br label %90

90:                                               ; preds = %89
  %91 = load i32, i32* %3, align 4
  %92 = add nsw i32 %91, 1
  store i32 %92, i32* %3, align 4
  br label %66

93:                                               ; preds = %66
  br label %94

94:                                               ; preds = %93
  %95 = load i32, i32* %1, align 4
  %96 = add nsw i32 %95, 1
  store i32 %96, i32* %1, align 4
  br label %57

97:                                               ; preds = %57
  store i32 0, i32* %1, align 4
  br label %98

98:                                               ; preds = %132, %97
  %99 = load i32, i32* %1, align 4
  %100 = load i32, i32* %6, align 4
  %101 = load i32, i32* %5, align 4
  %102 = sub nsw i32 %100, %101
  %103 = icmp sle i32 %99, %102
  br i1 %103, label %104, label %135

104:                                              ; preds = %98
  store i32 0, i32* %3, align 4
  br label %105

105:                                              ; preds = %128, %104
  %106 = load i32, i32* %3, align 4
  %107 = load i32, i32* %6, align 4
  %108 = load i32, i32* %5, align 4
  %109 = sub nsw i32 %107, %108
  %110 = icmp sle i32 %106, %109
  br i1 %110, label %111, label %131

111:                                              ; preds = %105
  %112 = load i32, i32* %1, align 4
  %113 = sext i32 %112 to i64
  %114 = getelementptr inbounds [600 x i32], [600 x i32]* %7, i64 0, i64 %113
  %115 = load i32, i32* %114, align 4
  %116 = load i32, i32* %3, align 4
  %117 = sext i32 %116 to i64
  %118 = getelementptr inbounds [600 x i32], [600 x i32]* %7, i64 0, i64 %117
  %119 = load i32, i32* %118, align 4
  %120 = icmp sge i32 %115, %119
  br i1 %120, label %121, label %127

121:                                              ; preds = %111
  %122 = load i32, i32* %1, align 4
  %123 = sext i32 %122 to i64
  %124 = getelementptr inbounds [600 x i32], [600 x i32]* %2, i64 0, i64 %123
  %125 = load i32, i32* %124, align 4
  %126 = add nsw i32 %125, 1
  store i32 %126, i32* %124, align 4
  br label %127

127:                                              ; preds = %121, %111
  br label %128

128:                                              ; preds = %127
  %129 = load i32, i32* %3, align 4
  %130 = add nsw i32 %129, 1
  store i32 %130, i32* %3, align 4
  br label %105

131:                                              ; preds = %105
  br label %132

132:                                              ; preds = %131
  %133 = load i32, i32* %1, align 4
  %134 = add nsw i32 %133, 1
  store i32 %134, i32* %1, align 4
  br label %98

135:                                              ; preds = %98
  store i32 0, i32* %1, align 4
  br label %136

136:                                              ; preds = %154, %135
  %137 = load i32, i32* %1, align 4
  %138 = load i32, i32* %6, align 4
  %139 = load i32, i32* %5, align 4
  %140 = sub nsw i32 %138, %139
  %141 = icmp sle i32 %137, %140
  br i1 %141, label %142, label %157

142:                                              ; preds = %136
  %143 = load i32, i32* %1, align 4
  %144 = sext i32 %143 to i64
  %145 = getelementptr inbounds [600 x i32], [600 x i32]* %2, i64 0, i64 %144
  %146 = load i32, i32* %145, align 4
  %147 = load i32, i32* %6, align 4
  %148 = load i32, i32* %5, align 4
  %149 = sub nsw i32 %147, %148
  %150 = add nsw i32 %149, 1
  %151 = icmp eq i32 %146, %150
  br i1 %151, label %152, label %153

152:                                              ; preds = %142
  br label %157

153:                                              ; preds = %142
  br label %154

154:                                              ; preds = %153
  %155 = load i32, i32* %1, align 4
  %156 = add nsw i32 %155, 1
  store i32 %156, i32* %1, align 4
  br label %136

157:                                              ; preds = %152, %136
  %158 = load i32, i32* %1, align 4
  %159 = sext i32 %158 to i64
  %160 = getelementptr inbounds [600 x i32], [600 x i32]* %7, i64 0, i64 %159
  %161 = load i32, i32* %160, align 4
  %162 = icmp eq i32 %161, 0
  br i1 %162, label %163, label %165

163:                                              ; preds = %157
  %164 = call i32 (i8*, ...) @printf(i8* getelementptr inbounds ([3 x i8], [3 x i8]* @.str.2, i64 0, i64 0))
  br label %199

165:                                              ; preds = %157
  %166 = load i32, i32* %1, align 4
  %167 = sext i32 %166 to i64
  %168 = getelementptr inbounds [600 x i32], [600 x i32]* %7, i64 0, i64 %167
  %169 = load i32, i32* %168, align 4
  %170 = add nsw i32 %169, 1
  %171 = call i32 (i8*, ...) @printf(i8* getelementptr inbounds ([4 x i8], [4 x i8]* @.str.3, i64 0, i64 0), i32 %170)
  store i32 0, i32* %1, align 4
  br label %172

172:                                              ; preds = %195, %165
  %173 = load i32, i32* %1, align 4
  %174 = load i32, i32* %6, align 4
  %175 = load i32, i32* %5, align 4
  %176 = sub nsw i32 %174, %175
  %177 = icmp sle i32 %173, %176
  br i1 %177, label %178, label %198

178:                                              ; preds = %172
  %179 = load i32, i32* %1, align 4
  %180 = sext i32 %179 to i64
  %181 = getelementptr inbounds [600 x i32], [600 x i32]* %2, i64 0, i64 %180
  %182 = load i32, i32* %181, align 4
  %183 = load i32, i32* %6, align 4
  %184 = load i32, i32* %5, align 4
  %185 = sub nsw i32 %183, %184
  %186 = add nsw i32 %185, 1
  %187 = icmp eq i32 %182, %186
  br i1 %187, label %188, label %194

188:                                              ; preds = %178
  %189 = load i32, i32* %1, align 4
  %190 = sext i32 %189 to i64
  %191 = getelementptr inbounds [600 x [7 x i8]], [600 x [7 x i8]]* %9, i64 0, i64 %190
  %192 = getelementptr inbounds [7 x i8], [7 x i8]* %191, i64 0, i64 0
  %193 = call i32 (i8*, ...) @printf(i8* getelementptr inbounds ([4 x i8], [4 x i8]* @.str.4, i64 0, i64 0), i8* %192)
  br label %194

194:                                              ; preds = %188, %178
  br label %195

195:                                              ; preds = %194
  %196 = load i32, i32* %1, align 4
  %197 = add nsw i32 %196, 1
  store i32 %197, i32* %1, align 4
  br label %172

198:                                              ; preds = %172
  br label %199

199:                                              ; preds = %198, %163
  ret void
}